target datalayout = "e-m:e-p270:32:32-p271:32:32-p272:64:64-i64:64-i128:128-f80:128-n8:16:32:64-S128"
target triple = "x86_64-unknown-linux-gnu"

%"class.std::error_code" = type { i32, ptr }
%struct.__sigset_t = type { [16 x i64] }

; Function Attrs: mustprogress nounwind uwtable
define linkonce_odr void @_ZNSt10error_codeC2EiRKNSt3_V214error_categoryE(ptr noundef nonnull align 8 dereferenceable(16) %this, i32 noundef %__v, ptr noundef nonnull align 8 dereferenceable(8) %__cat) unnamed_addr #0 comdat align 2 {
entry:
  %this.addr = alloca ptr, align 8
  %__v.addr = alloca i32, align 4
  %__cat.addr = alloca ptr, align 8
  store ptr %this, ptr %this.addr, align 8
  store i32 %__v, ptr %__v.addr, align 4
  store ptr %__cat, ptr %__cat.addr, align 8
  %this1 = load ptr, ptr %this.addr, align 8
  %_M_value = getelementptr inbounds %"class.std::error_code", ptr %this1, i32 0, i32 0
  %0 = load i32, ptr %__v.addr, align 4
  store i32 %0, ptr %_M_value, align 8
  %_M_cat = getelementptr inbounds %"class.std::error_code", ptr %this1, i32 0, i32 1
  %1 = load ptr, ptr %__cat.addr, align 8
  store ptr %1, ptr %_M_cat, align 8
  ret void
}

; Function Attrs: mustprogress nounwind uwtable
define hidden { i32, ptr } @_ZN4llvh3sys7Process25SafelyCloseFileDescriptorEi(i32 noundef %FD) #0 align 2 {
entry:
  %retval = alloca %"class.std::error_code", align 8
  %FD.addr = alloca i32, align 4
  %FullSet = alloca %struct.__sigset_t, align 8
  %SavedSet = alloca %struct.__sigset_t, align 8
  %EC = alloca i32, align 4
  %ErrnoFromClose = alloca i32, align 4
  %EC12 = alloca i32, align 4
  store i32 %FD, ptr %FD.addr, align 4
  %call = call i32 @sigfillset(ptr noundef %FullSet) #5
  %cmp = icmp slt i32 %call, 0
  br i1 %cmp, label %if.then, label %if.end

if.then:                                          ; preds = %entry
  %call1 = call ptr @__errno_location() #11
  %0 = load i32, ptr %call1, align 4
  %call2 = call noundef nonnull align 8 dereferenceable(8) ptr @_ZNSt3_V216generic_categoryEv() #11
  call void @_ZNSt10error_codeC2EiRKNSt3_V214error_categoryE(ptr noundef nonnull align 8 dereferenceable(16) %retval, i32 noundef %0, ptr noundef nonnull align 8 dereferenceable(8) %call2) #5
  br label %return

if.end:                                           ; preds = %entry
  %call3 = call i32 @pthread_sigmask(i32 noundef 2, ptr noundef %FullSet, ptr noundef %SavedSet) #5
  store i32 %call3, ptr %EC, align 4
  %1 = load i32, ptr %EC, align 4
  %tobool = icmp ne i32 %1, 0
  br i1 %tobool, label %if.then4, label %if.end6

if.then4:                                         ; preds = %if.end
  %2 = load i32, ptr %EC, align 4
  %call5 = call noundef nonnull align 8 dereferenceable(8) ptr @_ZNSt3_V216generic_categoryEv() #11
  call void @_ZNSt10error_codeC2EiRKNSt3_V214error_categoryE(ptr noundef nonnull align 8 dereferenceable(16) %retval, i32 noundef %2, ptr noundef nonnull align 8 dereferenceable(8) %call5) #5
  br label %return

if.end6:                                          ; preds = %if.end
  store i32 0, ptr %ErrnoFromClose, align 4
  %3 = load i32, ptr %FD.addr, align 4
  %call7 = call i32 @close(i32 noundef %3)
  %cmp8 = icmp slt i32 %call7, 0
  br i1 %cmp8, label %if.then9, label %if.end11

if.then9:                                         ; preds = %if.end6
  %call10 = call ptr @__errno_location() #11
  %4 = load i32, ptr %call10, align 4
  store i32 %4, ptr %ErrnoFromClose, align 4
  br label %if.end11

if.end11:                                         ; preds = %if.then9, %if.end6
  store i32 0, ptr %EC12, align 4
  %call13 = call i32 @pthread_sigmask(i32 noundef 2, ptr noundef %SavedSet, ptr noundef null) #5
  store i32 %call13, ptr %EC12, align 4
  %5 = load i32, ptr %ErrnoFromClose, align 4
  %tobool14 = icmp ne i32 %5, 0
  br i1 %tobool14, label %if.then15, label %if.end17

if.then15:                                        ; preds = %if.end11
  %6 = load i32, ptr %ErrnoFromClose, align 4
  %call16 = call noundef nonnull align 8 dereferenceable(8) ptr @_ZNSt3_V216generic_categoryEv() #11
  call void @_ZNSt10error_codeC2EiRKNSt3_V214error_categoryE(ptr noundef nonnull align 8 dereferenceable(16) %retval, i32 noundef %6, ptr noundef nonnull align 8 dereferenceable(8) %call16) #5
  br label %return

if.end17:                                         ; preds = %if.end11
  %7 = load i32, ptr %EC12, align 4
  %call18 = call noundef nonnull align 8 dereferenceable(8) ptr @_ZNSt3_V216generic_categoryEv() #11
  call void @_ZNSt10error_codeC2EiRKNSt3_V214error_categoryE(ptr noundef nonnull align 8 dereferenceable(16) %retval, i32 noundef %7, ptr noundef nonnull align 8 dereferenceable(8) %call18) #5
  br label %return

return:                                           ; preds = %if.end17, %if.then15, %if.then4, %if.then
  %8 = load { i32, ptr }, ptr %retval, align 8
  ret { i32, ptr } %8
}