; Function Attrs: mustprogress nounwind uwtable
define hidden { i32, ptr } @_ZN4llvh3sys7Process25SafelyCloseFileDescriptorEi(i32 noundef %FD) local_unnamed_addr #0 align 2 {
entry:
  %FullSet = alloca %struct.__sigset_t, align 8
  %SavedSet = alloca %struct.__sigset_t, align 8
  %call = call i32 @sigfillset(ptr noundef nonnull %FullSet) #18
  %cmp = icmp slt i32 %call, 0
  br i1 %cmp, label %if.then, label %if.end

if.then:                                          ; preds = %entry
  %call1 = tail call ptr @__errno_location() #20
  %0 = load i32, ptr %call1, align 4
  br label %return

if.end:                                           ; preds = %entry
  %call3 = call i32 @pthread_sigmask(i32 noundef 2, ptr noundef nonnull %FullSet, ptr noundef nonnull %SavedSet) #18
  %tobool.not = icmp eq i32 %call3, 0
  br i1 %tobool.not, label %if.end6, label %return

if.end6:                                          ; preds = %if.end
  %call7 = call i32 @close(i32 noundef %FD) #18
  %cmp8 = icmp slt i32 %call7, 0
  br i1 %cmp8, label %if.end11, label %if.end11.thread

if.end11.thread:                                  ; preds = %if.end6
  %call137 = call i32 @pthread_sigmask(i32 noundef 2, ptr noundef nonnull %SavedSet, ptr noundef null) #18
  br label %return

if.end11:                                         ; preds = %if.end6
  %call10 = tail call ptr @__errno_location() #20
  %1 = load i32, ptr %call10, align 4
  %call13 = call i32 @pthread_sigmask(i32 noundef 2, ptr noundef nonnull %SavedSet, ptr noundef null) #18
  %tobool14.not = icmp eq i32 %1, 0
  %spec.select = select i1 %tobool14.not, i32 %call13, i32 %1
  br label %return

return:                                           ; preds = %if.end11, %if.end11.thread, %if.end, %if.then
  %retval.sroa.0.0 = phi i32 [ %0, %if.then ], [ %call3, %if.end ], [ %call137, %if.end11.thread ], [ %spec.select, %if.end11 ]
  %call18 = tail call noundef nonnull align 8 dereferenceable(8) ptr @_ZNSt3_V216generic_categoryEv() #20
  %.fca.0.insert = insertvalue { i32, ptr } poison, i32 %retval.sroa.0.0, 0
  %.fca.1.insert = insertvalue { i32, ptr } %.fca.0.insert, ptr %call18, 1
  ret { i32, ptr } %.fca.1.insert
}